; Function Attrs: mustprogress nounwind uwtable
define noundef ptr @_ZNK19OpenColorIO_v2_4dev17ProcessorMetadata7getLookEi(ptr nocapture noundef nonnull readonly align 8 dereferenceable(8) %this, i32 noundef %index) local_unnamed_addr #4 align 2 {
entry:
  %cmp = icmp slt i32 %index, 0
  br i1 %cmp, label %return, label %lor.lhs.false

lor.lhs.false:                                    ; preds = %entry
  %0 = load ptr, ptr %this, align 8
  %looks = getelementptr inbounds i8, ptr %0, i64 48
  %_M_finish.i = getelementptr inbounds i8, ptr %0, i64 56
  %1 = load ptr, ptr %_M_finish.i, align 8
  %2 = load ptr, ptr %looks, align 8
  %sub.ptr.lhs.cast.i = ptrtoint ptr %1 to i64
  %sub.ptr.rhs.cast.i = ptrtoint ptr %2 to i64
  %sub.ptr.sub.i = sub i64 %sub.ptr.lhs.cast.i, %sub.ptr.rhs.cast.i
  %sub.ptr.div.i = lshr exact i64 %sub.ptr.sub.i, 5
  %conv = trunc i64 %sub.ptr.div.i to i32
  %cmp3.not = icmp sgt i32 %conv, %index
  br i1 %cmp3.not, label %if.end, label %return

if.end:                                           ; preds = %lor.lhs.false
  %conv6 = zext nneg i32 %index to i64
  %add.ptr.i = getelementptr inbounds %"class.std::__cxx11::basic_string", ptr %2, i64 %conv6
  %call8 = tail call noundef ptr @_ZNKSt7__cxx1112basic_stringIcSt11char_traitsIcESaIcEE5c_strEv(ptr noundef nonnull align 8 dereferenceable(32) %add.ptr.i) #22
  br label %return

return:                                           ; preds = %entry, %lor.lhs.false, %if.end
  %retval.0 = phi ptr [ %call8, %if.end ], [ @.str, %lor.lhs.false ], [ @.str, %entry ]
  ret ptr %retval.0
}